target datalayout = "e-m:e-p270:32:32-p271:32:32-p272:64:64-i64:64-i128:128-f80:128-n8:16:32:64-S128"
target triple = "x86_64-pc-linux-gnu"

%"struct.vcpkg::StringView" = type { ptr, i64 }
%"struct.vcpkg::Unicode::Utf8Decoder" = type { i32, ptr, ptr, ptr }
%"struct.vcpkg::LocalizedString" = type { %"class.std::__cxx11::basic_string" }
%"class.std::__cxx11::basic_string" = type { %"struct.std::__cxx11::basic_string<char>::_Alloc_hider", i64, %union.anon }
%"struct.std::__cxx11::basic_string<char>::_Alloc_hider" = type { ptr }
%union.anon = type { i64, [8 x i8] }
%"struct.vcpkg::LineInfo" = type { i32, ptr }
%"struct.vcpkg::ParseMessages" = type { %"struct.vcpkg::Optional", %"class.std::vector" }
%"struct.vcpkg::Optional" = type { %"struct.vcpkg::details::OptionalStorage" }
%"struct.vcpkg::details::OptionalStorage" = type { %"struct.vcpkg::details::OptionalStorageDtor" }
%"struct.vcpkg::details::OptionalStorageDtor" = type { i8, %union.anon.1 }
%union.anon.1 = type { %"struct.vcpkg::LocalizedString" }
%"class.std::vector" = type { %"struct.std::_Vector_base" }
%"struct.std::_Vector_base" = type { %"struct.std::_Vector_base<vcpkg::ParseMessage, std::allocator<vcpkg::ParseMessage>>::_Vector_impl" }
%"struct.std::_Vector_base<vcpkg::ParseMessage, std::allocator<vcpkg::ParseMessage>>::_Vector_impl" = type { %"struct.std::_Vector_base<vcpkg::ParseMessage, std::allocator<vcpkg::ParseMessage>>::_Vector_impl_data" }
%"struct.std::_Vector_base<vcpkg::ParseMessage, std::allocator<vcpkg::ParseMessage>>::_Vector_impl_data" = type { ptr, ptr, ptr }
%"struct.vcpkg::ParserBase" = type { %"struct.vcpkg::Unicode::Utf8Decoder", %"struct.vcpkg::Unicode::Utf8Decoder", i32, i32, %"struct.vcpkg::StringView", %"struct.vcpkg::Optional.5", %"struct.vcpkg::ParseMessages" }
%"struct.vcpkg::Optional.5" = type { %"struct.vcpkg::details::OptionalStorage.6" }
%"struct.vcpkg::details::OptionalStorage.6" = type { %"struct.vcpkg::details::OptionalStorageDtor.7" }
%"struct.vcpkg::details::OptionalStorageDtor.7" = type { i8, %union.anon.8 }
%union.anon.8 = type { %"struct.vcpkg::StringView" }

@.str.2 = private unnamed_addr constant [119 x i8] c"generated/home/dtcxzyw/WorkSpace/Projects/compilers/llvm-opt-benchmark/bench/vcpkg/vcpkg-tool/src/vcpkg/base/parse.cpp\00", align 1
@.str.3 = private unnamed_addr constant [123 x i8] c"generated/home/dtcxzyw/WorkSpace/Projects/compilers/llvm-opt-benchmark/bench/vcpkg/vcpkg-tool/include/vcpkg/base/unicode.h\00", align 1

; Function Attrs: noinline noreturn nounwind uwtable
define linkonce_odr hidden void @__clang_call_terminate(ptr noundef %0) #11 comdat {
  %2 = call ptr @__cxa_begin_catch(ptr %0) #19
  call void @_ZSt9terminatev() #21
  unreachable
}

; Function Attrs: inlinehint mustprogress nounwind uwtable
define linkonce_odr dso_local noundef zeroext i1 @_ZNK5vcpkg7Unicode11Utf8Decoder6is_eofEv(ptr noundef nonnull align 8 dereferenceable(32) %0) #6 comdat align 2 {
  %2 = alloca ptr, align 8
  store ptr %0, ptr %2, align 8, !tbaa !9
  %3 = load ptr, ptr %2, align 8
  %4 = getelementptr inbounds nuw %"struct.vcpkg::Unicode::Utf8Decoder", ptr %3, i32 0, i32 0
  %5 = load i32, ptr %4, align 8, !tbaa !35
  %6 = icmp eq i32 %5, -1
  ret i1 %6
}

; Function Attrs: mustprogress nounwind uwtable
define linkonce_odr dso_local noundef zeroext i1 @_ZN5vcpkg7Unicode29utf16_is_surrogate_code_pointEDi(i32 noundef zeroext %0) #2 comdat {
  %2 = alloca i32, align 4
  store i32 %0, ptr %2, align 4, !tbaa !14
  %3 = load i32, ptr %2, align 4, !tbaa !14
  %4 = icmp uge i32 %3, 55296
  br i1 %4, label %5, label %8

5:                                                ; preds = %1
  %6 = load i32, ptr %2, align 4, !tbaa !14
  %7 = icmp ult i32 %6, 57344
  br label %8

8:                                                ; preds = %5, %1
  %9 = phi i1 [ false, %1 ], [ %7, %5 ]
  ret i1 %9
}

; Function Attrs: mustprogress nounwind uwtable
define linkonce_odr dso_local noundef zeroext i1 @_ZN5vcpkg7UnicodeneERKNS0_11Utf8DecoderENS1_8sentinelE(ptr noundef nonnull align 8 dereferenceable(32) %0) #2 comdat {
  %2 = alloca ptr, align 8
  store ptr %0, ptr %2, align 8, !tbaa !9
  %3 = load ptr, ptr %2, align 8, !tbaa !9
  %4 = call noundef zeroext i1 @_ZNK5vcpkg7Unicode11Utf8Decoder6is_eofEv(ptr noundef nonnull align 8 dereferenceable(32) %3) #19
  %5 = xor i1 %4, true
  ret i1 %5
}

; Function Attrs: mustprogress uwtable
define internal void @_ZN5vcpkgL14advance_rowcolEDiRiS0_(i32 noundef zeroext %0, ptr noundef nonnull align 4 dereferenceable(4) %1, ptr noundef nonnull align 4 dereferenceable(4) %2) #0 {
  %4 = alloca i32, align 4
  %5 = alloca ptr, align 8
  %6 = alloca ptr, align 8
  %7 = alloca %"struct.vcpkg::LineInfo", align 8
  store i32 %0, ptr %4, align 4, !tbaa !14
  store ptr %1, ptr %5, align 8, !tbaa !52
  store ptr %2, ptr %6, align 8, !tbaa !52
  %8 = load ptr, ptr %5, align 8, !tbaa !52
  %9 = load i32, ptr %8, align 4, !tbaa !107
  %10 = icmp eq i32 %9, 0
  br i1 %10, label %11, label %16

11:                                               ; preds = %3
  %12 = load ptr, ptr %6, align 8, !tbaa !52
  %13 = load i32, ptr %12, align 4, !tbaa !107
  %14 = icmp eq i32 %13, 0
  br i1 %14, label %15, label %16

15:                                               ; preds = %11
  br label %51

16:                                               ; preds = %11, %3
  %17 = load ptr, ptr %5, align 8, !tbaa !52
  %18 = load i32, ptr %17, align 4, !tbaa !107
  %19 = icmp eq i32 %18, 0
  br i1 %19, label %24, label %20

20:                                               ; preds = %16
  %21 = load ptr, ptr %6, align 8, !tbaa !52
  %22 = load i32, ptr %21, align 4, !tbaa !107
  %23 = icmp eq i32 %22, 0
  br i1 %23, label %24, label %27

24:                                               ; preds = %20, %16
  call void @llvm.lifetime.start.p0(i64 16, ptr %7) #19
  %25 = getelementptr inbounds nuw %"struct.vcpkg::LineInfo", ptr %7, i32 0, i32 0
  store i32 18, ptr %25, align 8, !tbaa !31
  %26 = getelementptr inbounds nuw %"struct.vcpkg::LineInfo", ptr %7, i32 0, i32 1
  store ptr @.str.2, ptr %26, align 8, !tbaa !34
  call void @_ZN5vcpkg6Checks11unreachableERKNS_8LineInfoE(ptr noundef nonnull align 8 dereferenceable(16) %7) #20
  unreachable

27:                                               ; preds = %20
  br label %28

28:                                               ; preds = %27
  %29 = load i32, ptr %4, align 4, !tbaa !14
  %30 = icmp eq i32 %29, 9
  br i1 %30, label %31, label %38

31:                                               ; preds = %28
  %32 = load ptr, ptr %6, align 8, !tbaa !52
  %33 = load i32, ptr %32, align 4, !tbaa !107
  %34 = add nsw i32 %33, 7
  %35 = and i32 %34, -8
  %36 = add nsw i32 %35, 1
  %37 = load ptr, ptr %6, align 8, !tbaa !52
  store i32 %36, ptr %37, align 4, !tbaa !107
  br label %51

38:                                               ; preds = %28
  %39 = load i32, ptr %4, align 4, !tbaa !14
  %40 = icmp eq i32 %39, 10
  br i1 %40, label %41, label %46

41:                                               ; preds = %38
  %42 = load ptr, ptr %5, align 8, !tbaa !52
  %43 = load i32, ptr %42, align 4, !tbaa !107
  %44 = add nsw i32 %43, 1
  store i32 %44, ptr %42, align 4, !tbaa !107
  %45 = load ptr, ptr %6, align 8, !tbaa !52
  store i32 1, ptr %45, align 4, !tbaa !107
  br label %50

46:                                               ; preds = %38
  %47 = load ptr, ptr %6, align 8, !tbaa !52
  %48 = load i32, ptr %47, align 4, !tbaa !107
  %49 = add nsw i32 %48, 1
  store i32 %49, ptr %47, align 4, !tbaa !107
  br label %50

50:                                               ; preds = %46, %41
  br label %51

51:                                               ; preds = %15, %50, %31
  ret void
}

; Function Attrs: mustprogress nounwind uwtable
define linkonce_odr dso_local noundef zeroext i32 @_ZNK5vcpkg7Unicode11Utf8DecoderdeEv(ptr noundef nonnull align 8 dereferenceable(32) %0) #2 comdat align 2 personality ptr @__gxx_personality_v0 {
  %2 = alloca ptr, align 8
  %3 = alloca %"struct.vcpkg::LineInfo", align 8
  store ptr %0, ptr %2, align 8, !tbaa !9
  %4 = load ptr, ptr %2, align 8
  %5 = call noundef zeroext i1 @_ZNK5vcpkg7Unicode11Utf8Decoder6is_eofEv(ptr noundef nonnull align 8 dereferenceable(32) %4) #19
  br i1 %5, label %6, label %10

6:                                                ; preds = %1
  call void @llvm.lifetime.start.p0(i64 16, ptr %3) #19
  %7 = getelementptr inbounds nuw %"struct.vcpkg::LineInfo", ptr %3, i32 0, i32 0
  store i32 153, ptr %7, align 8, !tbaa !31
  %8 = getelementptr inbounds nuw %"struct.vcpkg::LineInfo", ptr %3, i32 0, i32 1
  store ptr @.str.3, ptr %8, align 8, !tbaa !34
  invoke void @_ZN5vcpkg6Checks11unreachableERKNS_8LineInfoE(ptr noundef nonnull align 8 dereferenceable(16) %3) #20
          to label %9 unwind label %13

9:                                                ; preds = %6
  unreachable

10:                                               ; preds = %1
  %11 = getelementptr inbounds nuw %"struct.vcpkg::Unicode::Utf8Decoder", ptr %4, i32 0, i32 0
  %12 = load i32, ptr %11, align 8, !tbaa !35
  ret i32 %12

13:                                               ; preds = %6
  %14 = landingpad { ptr, i32 }
          catch ptr null
  %15 = extractvalue { ptr, i32 } %14, 0
  call void @__clang_call_terminate(ptr %15) #21
  unreachable
}

; Function Attrs: mustprogress nounwind uwtable
define linkonce_odr dso_local noundef zeroext i1 @_ZN5vcpkg7UnicodeeqERKNS0_11Utf8DecoderENS1_8sentinelE(ptr noundef nonnull align 8 dereferenceable(32) %0) #2 comdat {
  %2 = alloca ptr, align 8
  store ptr %0, ptr %2, align 8, !tbaa !9
  %3 = load ptr, ptr %2, align 8, !tbaa !9
  %4 = call noundef zeroext i1 @_ZNK5vcpkg7Unicode11Utf8Decoder6is_eofEv(ptr noundef nonnull align 8 dereferenceable(32) %3) #19
  ret i1 %4
}

; Function Attrs: mustprogress nounwind uwtable
define linkonce_odr dso_local void @_ZNK5vcpkg7Unicode11Utf8Decoder3endEv(ptr noundef nonnull align 8 dereferenceable(32) %0) #2 comdat align 2 {
  %2 = alloca ptr, align 8
  store ptr %0, ptr %2, align 8, !tbaa !9
  ret void
}

; Function Attrs: mustprogress nounwind uwtable
define linkonce_odr dso_local void @_ZN5vcpkg10StringViewC2EPKcS2_(ptr noundef nonnull align 8 dereferenceable(16) %0, ptr noundef %1, ptr noundef %2) unnamed_addr #2 comdat align 2 {
  %4 = alloca ptr, align 8
  %5 = alloca ptr, align 8
  %6 = alloca ptr, align 8
  store ptr %0, ptr %4, align 8, !tbaa !26
  store ptr %1, ptr %5, align 8, !tbaa !17
  store ptr %2, ptr %6, align 8, !tbaa !17
  %7 = load ptr, ptr %4, align 8
  %8 = getelementptr inbounds nuw %"struct.vcpkg::StringView", ptr %7, i32 0, i32 0
  %9 = load ptr, ptr %5, align 8, !tbaa !17
  store ptr %9, ptr %8, align 8, !tbaa !28
  %10 = getelementptr inbounds nuw %"struct.vcpkg::StringView", ptr %7, i32 0, i32 1
  %11 = load ptr, ptr %6, align 8, !tbaa !17
  %12 = load ptr, ptr %5, align 8, !tbaa !17
  %13 = ptrtoint ptr %11 to i64
  %14 = ptrtoint ptr %12 to i64
  %15 = sub i64 %13, %14
  store i64 %15, ptr %10, align 8, !tbaa !30
  ret void
}

; Function Attrs: mustprogress uwtable
define dso_local noundef zeroext i32 @_ZN5vcpkg10ParserBase4nextEv(ptr noundef nonnull align 8 dereferenceable(176) %0) #0 align 2 {
  %2 = alloca i32, align 4
  %3 = alloca ptr, align 8
  %4 = alloca i32, align 4
  store ptr %0, ptr %3, align 8, !tbaa !77
  %5 = load ptr, ptr %3, align 8
  %6 = getelementptr inbounds nuw %"struct.vcpkg::ParserBase", ptr %5, i32 0, i32 0
  %7 = getelementptr inbounds nuw %"struct.vcpkg::ParserBase", ptr %5, i32 0, i32 0
  call void @_ZNK5vcpkg7Unicode11Utf8Decoder3endEv(ptr noundef nonnull align 8 dereferenceable(32) %7)
  %8 = call noundef zeroext i1 @_ZN5vcpkg7UnicodeeqERKNS0_11Utf8DecoderENS1_8sentinelE(ptr noundef nonnull align 8 dereferenceable(32) %6) #19
  br i1 %8, label %9, label %10

9:                                                ; preds = %1
  store i32 -1, ptr %2, align 4
  br label %37

10:                                               ; preds = %1
  call void @llvm.lifetime.start.p0(i64 4, ptr %4) #19
  %11 = getelementptr inbounds nuw %"struct.vcpkg::ParserBase", ptr %5, i32 0, i32 0
  %12 = call noundef zeroext i32 @_ZNK5vcpkg7Unicode11Utf8DecoderdeEv(ptr noundef nonnull align 8 dereferenceable(32) %11) #19
  store i32 %12, ptr %4, align 4, !tbaa !14
  %13 = load i32, ptr %4, align 4, !tbaa !14
  %14 = getelementptr inbounds nuw %"struct.vcpkg::ParserBase", ptr %5, i32 0, i32 2
  %15 = getelementptr inbounds nuw %"struct.vcpkg::ParserBase", ptr %5, i32 0, i32 3
  call void @_ZN5vcpkgL14advance_rowcolEDiRiS0_(i32 noundef zeroext %13, ptr noundef nonnull align 4 dereferenceable(4) %14, ptr noundef nonnull align 4 dereferenceable(4) %15)
  %16 = getelementptr inbounds nuw %"struct.vcpkg::ParserBase", ptr %5, i32 0, i32 0
  %17 = call noundef nonnull align 8 dereferenceable(32) ptr @_ZN5vcpkg7Unicode11Utf8DecoderppEv(ptr noundef nonnull align 8 dereferenceable(32) %16) #19
  %18 = load i32, ptr %4, align 4, !tbaa !14
  %19 = icmp eq i32 %18, 10
  br i1 %19, label %20, label %23

20:                                               ; preds = %10
  %21 = getelementptr inbounds nuw %"struct.vcpkg::ParserBase", ptr %5, i32 0, i32 0
  %22 = getelementptr inbounds nuw %"struct.vcpkg::ParserBase", ptr %5, i32 0, i32 1
  call void @llvm.memcpy.p0.p0.i64(ptr align 8 %22, ptr align 8 %21, i64 32, i1 false), !tbaa.struct !19
  br label %23

23:                                               ; preds = %20, %10
  %24 = getelementptr inbounds nuw %"struct.vcpkg::ParserBase", ptr %5, i32 0, i32 0
  %25 = getelementptr inbounds nuw %"struct.vcpkg::ParserBase", ptr %5, i32 0, i32 0
  call void @_ZNK5vcpkg7Unicode11Utf8Decoder3endEv(ptr noundef nonnull align 8 dereferenceable(32) %25)
  %26 = call noundef zeroext i1 @_ZN5vcpkg7UnicodeneERKNS0_11Utf8DecoderENS1_8sentinelE(ptr noundef nonnull align 8 dereferenceable(32) %24) #19
  br i1 %26, label %27, label %35

27:                                               ; preds = %23
  %28 = getelementptr inbounds nuw %"struct.vcpkg::ParserBase", ptr %5, i32 0, i32 0
  %29 = call noundef zeroext i32 @_ZNK5vcpkg7Unicode11Utf8DecoderdeEv(ptr noundef nonnull align 8 dereferenceable(32) %28) #19
  %30 = call noundef zeroext i1 @_ZN5vcpkg7Unicode29utf16_is_surrogate_code_pointEDi(i32 noundef zeroext %29) #19
  br i1 %30, label %31, label %35

31:                                               ; preds = %27
  %32 = getelementptr inbounds nuw %"struct.vcpkg::ParserBase", ptr %5, i32 0, i32 0
  call void @_ZNK5vcpkg7Unicode11Utf8Decoder3endEv(ptr noundef nonnull align 8 dereferenceable(32) %32)
  %33 = getelementptr inbounds nuw %"struct.vcpkg::ParserBase", ptr %5, i32 0, i32 0
  %34 = call noundef nonnull align 8 dereferenceable(32) ptr @_ZN5vcpkg7Unicode11Utf8DecoderaSENS1_8sentinelE(ptr noundef nonnull align 8 dereferenceable(32) %33) #19
  br label %35

35:                                               ; preds = %31, %27, %23
  %36 = call noundef zeroext i32 @_ZNK5vcpkg10ParserBase3curEv(ptr noundef nonnull align 8 dereferenceable(176) %5)
  store i32 %36, ptr %2, align 4
  call void @llvm.lifetime.end.p0(i64 4, ptr %4) #19
  br label %37

37:                                               ; preds = %35, %9
  %38 = load i32, ptr %2, align 4
  ret i32 %38
}

; Function Attrs: mustprogress nounwind uwtable
define linkonce_odr dso_local noundef zeroext i32 @_ZNK5vcpkg10ParserBase3curEv(ptr noundef nonnull align 8 dereferenceable(176) %0) #2 comdat align 2 {
  %2 = alloca ptr, align 8
  store ptr %0, ptr %2, align 8, !tbaa !77
  %3 = load ptr, ptr %2, align 8
  %4 = getelementptr inbounds nuw %"struct.vcpkg::ParserBase", ptr %3, i32 0, i32 0
  %5 = getelementptr inbounds nuw %"struct.vcpkg::ParserBase", ptr %3, i32 0, i32 0
  call void @_ZNK5vcpkg7Unicode11Utf8Decoder3endEv(ptr noundef nonnull align 8 dereferenceable(32) %5)
  %6 = call noundef zeroext i1 @_ZN5vcpkg7UnicodeeqERKNS0_11Utf8DecoderENS1_8sentinelE(ptr noundef nonnull align 8 dereferenceable(32) %4) #19
  br i1 %6, label %7, label %8

7:                                                ; preds = %1
  br label %11

8:                                                ; preds = %1
  %9 = getelementptr inbounds nuw %"struct.vcpkg::ParserBase", ptr %3, i32 0, i32 0
  %10 = call noundef zeroext i32 @_ZNK5vcpkg7Unicode11Utf8DecoderdeEv(ptr noundef nonnull align 8 dereferenceable(32) %9) #19
  br label %11

11:                                               ; preds = %8, %7
  %12 = phi i32 [ -1, %7 ], [ %10, %8 ]
  ret i32 %12
}

; Function Attrs: mustprogress nounwind uwtable
define linkonce_odr dso_local noundef ptr @_ZNK5vcpkg7Unicode11Utf8Decoder18pointer_to_currentEv(ptr noundef nonnull align 8 dereferenceable(32) %0) #2 comdat align 2 {
  %2 = alloca ptr, align 8
  store ptr %0, ptr %2, align 8, !tbaa !9
  %3 = load ptr, ptr %2, align 8
  %4 = getelementptr inbounds nuw %"struct.vcpkg::Unicode::Utf8Decoder", ptr %3, i32 0, i32 1
  %5 = load ptr, ptr %4, align 8, !tbaa !24
  ret ptr %5
}

; Function Attrs: mustprogress uwtable
define linkonce_odr dso_local { ptr, i64 } @_ZN5vcpkg10ParserBase11match_whileIPFbDiEEENS_10StringViewET_(ptr noundef nonnull align 8 dereferenceable(176) %0, ptr noundef %1) #0 comdat align 2 {
  %3 = alloca %"struct.vcpkg::StringView", align 8
  %4 = alloca ptr, align 8
  %5 = alloca ptr, align 8
  %6 = alloca ptr, align 8
  %7 = alloca i32, align 4
  store ptr %0, ptr %4, align 8, !tbaa !77
  store ptr %1, ptr %5, align 8, !tbaa !22
  %8 = load ptr, ptr %4, align 8
  call void @llvm.lifetime.start.p0(i64 8, ptr %6) #19
  %9 = getelementptr inbounds nuw %"struct.vcpkg::ParserBase", ptr %8, i32 0, i32 0
  %10 = call noundef ptr @_ZNK5vcpkg7Unicode11Utf8Decoder18pointer_to_currentEv(ptr noundef nonnull align 8 dereferenceable(32) %9) #19
  store ptr %10, ptr %6, align 8, !tbaa !17
  call void @llvm.lifetime.start.p0(i64 4, ptr %7) #19
  %11 = call noundef zeroext i32 @_ZNK5vcpkg10ParserBase3curEv(ptr noundef nonnull align 8 dereferenceable(176) %8)
  store i32 %11, ptr %7, align 4, !tbaa !14
  br label %12

12:                                               ; preds = %21, %2
  %13 = load i32, ptr %7, align 4, !tbaa !14
  %14 = icmp ne i32 %13, -1
  br i1 %14, label %15, label %19

15:                                               ; preds = %12
  %16 = load ptr, ptr %5, align 8, !tbaa !22
  %17 = load i32, ptr %7, align 4, !tbaa !14
  %18 = call noundef zeroext i1 %16(i32 noundef zeroext %17)
  br label %19

19:                                               ; preds = %15, %12
  %20 = phi i1 [ false, %12 ], [ %18, %15 ]
  br i1 %20, label %21, label %23

21:                                               ; preds = %19
  %22 = call noundef zeroext i32 @_ZN5vcpkg10ParserBase4nextEv(ptr noundef nonnull align 8 dereferenceable(176) %8)
  store i32 %22, ptr %7, align 4, !tbaa !14
  br label %12, !llvm.loop !99

23:                                               ; preds = %19
  %24 = load ptr, ptr %6, align 8, !tbaa !17
  %25 = getelementptr inbounds nuw %"struct.vcpkg::ParserBase", ptr %8, i32 0, i32 0
  %26 = call noundef ptr @_ZNK5vcpkg7Unicode11Utf8Decoder18pointer_to_currentEv(ptr noundef nonnull align 8 dereferenceable(32) %25) #19
  call void @_ZN5vcpkg10StringViewC2EPKcS2_(ptr noundef nonnull align 8 dereferenceable(16) %3, ptr noundef %24, ptr noundef %26) #19
  call void @llvm.lifetime.end.p0(i64 4, ptr %7) #19
  call void @llvm.lifetime.end.p0(i64 8, ptr %6) #19
  %27 = load { ptr, i64 }, ptr %3, align 8
  ret { ptr, i64 } %27
}

; Function Attrs: mustprogress uwtable
define dso_local { ptr, i64 } @_ZN5vcpkg10ParserBase15skip_whitespaceEv(ptr noundef nonnull align 8 dereferenceable(176) %0) #0 align 2 {
  %2 = alloca %"struct.vcpkg::StringView", align 8
  %3 = alloca ptr, align 8
  store ptr %0, ptr %3, align 8, !tbaa !77
  %4 = load ptr, ptr %3, align 8
  %5 = call { ptr, i64 } @_ZN5vcpkg10ParserBase11match_whileIPFbDiEEENS_10StringViewET_(ptr noundef nonnull align 8 dereferenceable(176) %4, ptr noundef @_ZN5vcpkg10ParserBase13is_whitespaceEDi)
  %6 = getelementptr inbounds nuw { ptr, i64 }, ptr %2, i32 0, i32 0
  %7 = extractvalue { ptr, i64 } %5, 0
  store ptr %7, ptr %6, align 8
  %8 = getelementptr inbounds nuw { ptr, i64 }, ptr %2, i32 0, i32 1
  %9 = extractvalue { ptr, i64 } %5, 1
  store i64 %9, ptr %8, align 8
  %10 = load { ptr, i64 }, ptr %2, align 8
  ret { ptr, i64 } %10
}