; Function Attrs: mustprogress uwtable
define dso_local { ptr, i64 } @_ZN5vcpkg10ParserBase15skip_whitespaceEv(ptr noundef nonnull align 8 dereferenceable(176) %0) local_unnamed_addr #0 align 2 personality ptr @__gxx_personality_v0 {
  %2 = alloca %"struct.vcpkg::LineInfo", align 8
  %3 = getelementptr inbounds nuw i8, ptr %0, i64 8
  %4 = load ptr, ptr %3, align 8, !tbaa !19
  %5 = load i32, ptr %0, align 8, !tbaa !15
  %.not4.i = icmp eq i32 %5, -1
  br i1 %.not4.i, label %_ZN5vcpkg10ParserBase11match_whileIPFbDiEEENS_10StringViewET_.exit, label %.lr.ph.i

.lr.ph.i:                                         ; preds = %1
  %6 = getelementptr inbounds nuw i8, ptr %0, i64 64
  %7 = getelementptr inbounds nuw i8, ptr %0, i64 68
  %8 = getelementptr inbounds nuw i8, ptr %0, i64 32
  br label %9

9:                                                ; preds = %_ZN5vcpkg10ParserBase4nextEv.exit.i, %.lr.ph.i
  %10 = phi i32 [ %5, %.lr.ph.i ], [ %.0.i.i, %_ZN5vcpkg10ParserBase4nextEv.exit.i ]
  switch i32 %10, label %.critedge.loopexit.i [
    i32 32, label %_ZNK5vcpkg7Unicode11Utf8DecoderdeEv.exit.i.i
    i32 13, label %_ZNK5vcpkg7Unicode11Utf8DecoderdeEv.exit.i.i
    i32 9, label %_ZNK5vcpkg7Unicode11Utf8DecoderdeEv.exit.i.i
    i32 10, label %_ZNK5vcpkg7Unicode11Utf8DecoderdeEv.exit.i.i
  ]

_ZNK5vcpkg7Unicode11Utf8DecoderdeEv.exit.i.i:     ; preds = %9, %9, %9, %9
  %11 = load i32, ptr %6, align 8, !tbaa !71
  %12 = icmp eq i32 %11, 0
  %13 = load i32, ptr %7, align 4
  %14 = icmp eq i32 %13, 0
  %or.cond.i.i.i = select i1 %12, i1 %14, i1 false
  br i1 %or.cond.i.i.i, label %_ZN5vcpkgL14advance_rowcolEDiRiS0_.exit.i.i, label %15

15:                                               ; preds = %_ZNK5vcpkg7Unicode11Utf8DecoderdeEv.exit.i.i
  %brmerge.i.i.i = select i1 %12, i1 true, i1 %14
  br i1 %brmerge.i.i.i, label %16, label %18

16:                                               ; preds = %15
  call void @llvm.lifetime.start.p0(i64 16, ptr nonnull %2) #21
  store i32 18, ptr %2, align 8, !tbaa !29
  %17 = getelementptr inbounds nuw i8, ptr %2, i64 8
  store ptr @.str.2, ptr %17, align 8, !tbaa !32
  call void @_ZN5vcpkg6Checks11unreachableERKNS_8LineInfoE(ptr noundef nonnull align 8 dereferenceable(16) %2) #22
  unreachable

18:                                               ; preds = %15
  switch i32 %10, label %25 [
    i32 9, label %19
    i32 10, label %23
  ]

19:                                               ; preds = %18
  %20 = add nsw i32 %13, 7
  %21 = and i32 %20, -8
  %22 = or disjoint i32 %21, 1
  br label %.sink.split.i.i.i

23:                                               ; preds = %18
  %24 = add nsw i32 %11, 1
  store i32 %24, ptr %6, align 8, !tbaa !71
  br label %.sink.split.i.i.i

25:                                               ; preds = %18
  %26 = add nsw i32 %13, 1
  br label %.sink.split.i.i.i

.sink.split.i.i.i:                                ; preds = %25, %23, %19
  %.sink.i.i.i = phi i32 [ 1, %23 ], [ %26, %25 ], [ %22, %19 ]
  store i32 %.sink.i.i.i, ptr %7, align 4, !tbaa !71
  br label %_ZN5vcpkgL14advance_rowcolEDiRiS0_.exit.i.i

_ZN5vcpkgL14advance_rowcolEDiRiS0_.exit.i.i:      ; preds = %.sink.split.i.i.i, %_ZNK5vcpkg7Unicode11Utf8DecoderdeEv.exit.i.i
  %27 = tail call noundef nonnull align 8 dereferenceable(32) ptr @_ZN5vcpkg7Unicode11Utf8DecoderppEv(ptr noundef nonnull align 8 dereferenceable(176) %0) #21
  %28 = icmp eq i32 %10, 10
  br i1 %28, label %29, label %30

29:                                               ; preds = %_ZN5vcpkgL14advance_rowcolEDiRiS0_.exit.i.i
  tail call void @llvm.memcpy.p0.p0.i64(ptr noundef nonnull align 8 dereferenceable(32) %8, ptr noundef nonnull align 8 dereferenceable(176) %0, i64 32, i1 false), !tbaa.struct !7
  br label %30

30:                                               ; preds = %29, %_ZN5vcpkgL14advance_rowcolEDiRiS0_.exit.i.i
  %31 = load i32, ptr %0, align 8, !tbaa !15
  %32 = and i32 %31, -2048
  %33 = icmp eq i32 %32, 55296
  br i1 %33, label %34, label %_ZN5vcpkg10ParserBase4nextEv.exit.i

34:                                               ; preds = %30
  %35 = tail call noundef nonnull align 8 dereferenceable(32) ptr @_ZN5vcpkg7Unicode11Utf8DecoderaSENS1_8sentinelE(ptr noundef nonnull align 8 dereferenceable(176) %0) #21
  %.pre.i.i = load i32, ptr %0, align 8, !tbaa !15
  br label %_ZN5vcpkg10ParserBase4nextEv.exit.i

_ZN5vcpkg10ParserBase4nextEv.exit.i:              ; preds = %34, %30
  %.0.i.i = phi i32 [ %.pre.i.i, %34 ], [ %31, %30 ]
  %.not.i = icmp eq i32 %.0.i.i, -1
  br i1 %.not.i, label %.critedge.loopexit.i, label %9, !llvm.loop !72

.critedge.loopexit.i:                             ; preds = %9, %_ZN5vcpkg10ParserBase4nextEv.exit.i
  %.pre.i = load ptr, ptr %3, align 8, !tbaa !19
  br label %_ZN5vcpkg10ParserBase11match_whileIPFbDiEEENS_10StringViewET_.exit

_ZN5vcpkg10ParserBase11match_whileIPFbDiEEENS_10StringViewET_.exit: ; preds = %1, %.critedge.loopexit.i
  %36 = phi ptr [ %.pre.i, %.critedge.loopexit.i ], [ %4, %1 ]
  %37 = ptrtoint ptr %36 to i64
  %38 = ptrtoint ptr %4 to i64
  %39 = sub i64 %37, %38
  %.fca.0.insert.i = insertvalue { ptr, i64 } poison, ptr %4, 0
  %.fca.1.insert.i = insertvalue { ptr, i64 } %.fca.0.insert.i, i64 %39, 1
  ret { ptr, i64 } %.fca.1.insert.i
}